target datalayout = "e-m:e-p270:32:32-p271:32:32-p272:64:64-i64:64-i128:128-f80:128-n8:16:32:64-S128"
target triple = "x86_64-pc-linux-gnu"

%struct.Gia_Obj_t_ = type <{ i64, i32 }>

; Function Attrs: inlinehint nounwind uwtable
define internal ptr @Gia_ObjFanin1(ptr noundef %0) #3 {
  %2 = alloca ptr, align 8
  store ptr %0, ptr %2, align 8, !tbaa !66
  %3 = load ptr, ptr %2, align 8, !tbaa !66
  %4 = load ptr, ptr %2, align 8, !tbaa !66
  %5 = load i64, ptr %4, align 4
  %6 = lshr i64 %5, 32
  %7 = and i64 %6, 536870911
  %8 = trunc i64 %7 to i32
  %9 = sext i32 %8 to i64
  %10 = sub i64 0, %9
  %11 = getelementptr inbounds %struct.Gia_Obj_t_, ptr %3, i64 %10
  ret ptr %11
}

; Function Attrs: inlinehint nounwind uwtable
define internal ptr @Gia_ObjFanin0(ptr noundef %0) #3 {
  %2 = alloca ptr, align 8
  store ptr %0, ptr %2, align 8, !tbaa !66
  %3 = load ptr, ptr %2, align 8, !tbaa !66
  %4 = load ptr, ptr %2, align 8, !tbaa !66
  %5 = load i64, ptr %4, align 4
  %6 = and i64 %5, 536870911
  %7 = trunc i64 %6 to i32
  %8 = sext i32 %7 to i64
  %9 = sub i64 0, %8
  %10 = getelementptr inbounds %struct.Gia_Obj_t_, ptr %3, i64 %9
  ret ptr %10
}

; Function Attrs: nounwind uwtable
define void @Sbd_ManFindCut_rec(ptr noundef %0, ptr noundef %1) #0 {
  %3 = alloca ptr, align 8
  %4 = alloca ptr, align 8
  store ptr %0, ptr %3, align 8, !tbaa !27
  store ptr %1, ptr %4, align 8, !tbaa !66
  %5 = load ptr, ptr %4, align 8, !tbaa !66
  %6 = load i64, ptr %5, align 4
  %7 = lshr i64 %6, 62
  %8 = and i64 %7, 1
  %9 = trunc i64 %8 to i32
  %10 = icmp ne i32 %9, 0
  br i1 %10, label %11, label %12

11:                                               ; preds = %2
  br label %31

12:                                               ; preds = %2
  %13 = load ptr, ptr %4, align 8, !tbaa !66
  %14 = load i64, ptr %13, align 4
  %15 = and i64 %14, -4611686018427387905
  %16 = or i64 %15, 4611686018427387904
  store i64 %16, ptr %13, align 4
  %17 = load ptr, ptr %4, align 8, !tbaa !66
  %18 = load i64, ptr %17, align 4
  %19 = lshr i64 %18, 30
  %20 = and i64 %19, 1
  %21 = trunc i64 %20 to i32
  %22 = icmp ne i32 %21, 0
  br i1 %22, label %23, label %24

23:                                               ; preds = %12
  br label %31

24:                                               ; preds = %12
  %25 = load ptr, ptr %3, align 8, !tbaa !27
  %26 = load ptr, ptr %4, align 8, !tbaa !66
  %27 = call ptr @Gia_ObjFanin0(ptr noundef %26)
  call void @Sbd_ManFindCut_rec(ptr noundef %25, ptr noundef %27)
  %28 = load ptr, ptr %3, align 8, !tbaa !27
  %29 = load ptr, ptr %4, align 8, !tbaa !66
  %30 = call ptr @Gia_ObjFanin1(ptr noundef %29)
  call void @Sbd_ManFindCut_rec(ptr noundef %28, ptr noundef %30)
  br label %31

31:                                               ; preds = %24, %23, %11
  ret void
}